target datalayout = "e-m:e-p270:32:32-p271:32:32-p272:64:64-i64:64-i128:128-f80:128-n8:16:32:64-S128"
target triple = "x86_64-pc-linux-gnu"

@.str.99 = private unnamed_addr constant [49 x i8] c"Usage: %s [options] [file list] [-a] [arg list]\0A\00", align 1
@.str.100 = private unnamed_addr constant [2 x i8] c"\0A\00", align 1
@.str.101 = private unnamed_addr constant [68 x i8] c"When file list is omitted, an interactive REPL is started instead.\0A\00", align 1
@.str.102 = private unnamed_addr constant [20 x i8] c"Available options:\0A\00", align 1
@.str.103 = private unnamed_addr constant [95 x i8] c"  --coverage: collect code coverage while running the code and output results to coverage.out\0A\00", align 1
@.str.104 = private unnamed_addr constant [43 x i8] c"  -h, --help: Display this usage message.\0A\00", align 1
@.str.105 = private unnamed_addr constant [89 x i8] c"  -i, --interactive: Run an interactive REPL after executing the last script specified.\0A\00", align 1
@.str.106 = private unnamed_addr constant [86 x i8] c"  -O<n>: compile with optimization level n (default 1, n should be between 0 and 2).\0A\00", align 1
@.str.107 = private unnamed_addr constant [79 x i8] c"  -g<n>: compile with debug level n (default 1, n should be between 0 and 2).\0A\00", align 1
@.str.108 = private unnamed_addr constant [105 x i8] c"  --profile[=N]: profile the code using N Hz sampling (default 10000) and output results to profile.out\0A\00", align 1
@.str.109 = private unnamed_addr constant [73 x i8] c"  --timetrace: record compiler time tracing information into trace.json\0A\00", align 1
@.str.110 = private unnamed_addr constant [56 x i8] c"  --codegen: execute code using native code generation\0A\00", align 1
@.str.111 = private unnamed_addr constant [82 x i8] c"  --program-args,-a: declare start of arguments to be passed to the Luau program\0A\00", align 1

; Function Attrs: mustprogress uwtable
define internal void @_ZL11displayHelpPKc(ptr noundef %0) #1 {
  %2 = alloca ptr, align 8
  store ptr %0, ptr %2, align 8
  %3 = load ptr, ptr %2, align 8
  %4 = call i32 (ptr, ...) @printf(ptr noundef @.str.99, ptr noundef %3)
  %5 = call i32 (ptr, ...) @printf(ptr noundef @.str.100)
  %6 = call i32 (ptr, ...) @printf(ptr noundef @.str.101)
  %7 = call i32 (ptr, ...) @printf(ptr noundef @.str.100)
  %8 = call i32 (ptr, ...) @printf(ptr noundef @.str.102)
  %9 = call i32 (ptr, ...) @printf(ptr noundef @.str.103)
  %10 = call i32 (ptr, ...) @printf(ptr noundef @.str.104)
  %11 = call i32 (ptr, ...) @printf(ptr noundef @.str.105)
  %12 = call i32 (ptr, ...) @printf(ptr noundef @.str.106)
  %13 = call i32 (ptr, ...) @printf(ptr noundef @.str.107)
  %14 = call i32 (ptr, ...) @printf(ptr noundef @.str.108)
  %15 = call i32 (ptr, ...) @printf(ptr noundef @.str.109)
  %16 = call i32 (ptr, ...) @printf(ptr noundef @.str.110)
  %17 = call i32 (ptr, ...) @printf(ptr noundef @.str.111)
  ret void
}