; Function Attrs: mustprogress nofree nounwind uwtable
define internal fastcc void @_ZL11displayHelpPKc(ptr noundef %0) unnamed_addr #4 {
  %2 = tail call i32 (ptr, ...) @printf(ptr noundef nonnull dereferenceable(1) @.str.99, ptr noundef %0)
  %putchar = tail call i32 @putchar(i32 10)
  %puts = tail call i32 @puts(ptr nonnull dereferenceable(1) @str)
  %putchar1 = tail call i32 @putchar(i32 10)
  %puts2 = tail call i32 @puts(ptr nonnull dereferenceable(1) @str.1)
  %puts3 = tail call i32 @puts(ptr nonnull dereferenceable(1) @str.2)
  %puts4 = tail call i32 @puts(ptr nonnull dereferenceable(1) @str.3)
  %puts5 = tail call i32 @puts(ptr nonnull dereferenceable(1) @str.4)
  %puts6 = tail call i32 @puts(ptr nonnull dereferenceable(1) @str.5)
  %puts7 = tail call i32 @puts(ptr nonnull dereferenceable(1) @str.6)
  %puts8 = tail call i32 @puts(ptr nonnull dereferenceable(1) @str.7)
  %puts9 = tail call i32 @puts(ptr nonnull dereferenceable(1) @str.8)
  %puts10 = tail call i32 @puts(ptr nonnull dereferenceable(1) @str.9)
  %puts11 = tail call i32 @puts(ptr nonnull dereferenceable(1) @str.10)
  ret void
}